target datalayout = "e-m:e-p270:32:32-p271:32:32-p272:64:64-i64:64-i128:128-f80:128-n8:16:32:64-S128"
target triple = "x86_64-pc-linux-gnu"

%struct._object = type { %union.anon.26, ptr }
%union.anon.26 = type { i64 }
%struct.PyCompilerFlags = type { i32, i32 }
%struct._PyCompiler = type { ptr, ptr, %struct._PyFutureFeatures, %struct.PyCompilerFlags, i32, i32, ptr, ptr, ptr, i8 }
%struct._PyFutureFeatures = type { i32, %struct._Py_SourceLocation }
%struct._Py_SourceLocation = type { i32, i32, i32, i32 }
%struct.compiler_unit = type { ptr, i32, ptr, ptr, ptr, ptr, i32, i32, [21 x %struct._PyCompile_FBlockInfo], %struct._PyCompile_CodeUnitMetadata }
%struct._PyCompile_FBlockInfo = type { i32, %struct._PyJumpTargetLabel, %struct._Py_SourceLocation, %struct._PyJumpTargetLabel, ptr }
%struct._PyJumpTargetLabel = type { i32 }
%struct._PyCompile_CodeUnitMetadata = type { ptr, ptr, ptr, ptr, ptr, ptr, ptr, ptr, i64, i64, i64, i32 }
%struct.anon.27 = type { i32, i32 }

; Function Attrs: alwaysinline nounwind uwtable
define internal i32 @_Py_IsImmortal(ptr noundef %0) #4 {
  %2 = alloca ptr, align 8
  store ptr %0, ptr %2, align 8, !tbaa !32
  %3 = load ptr, ptr %2, align 8, !tbaa !32
  %4 = getelementptr inbounds nuw %struct._object, ptr %3, i32 0, i32 0
  %5 = getelementptr inbounds nuw %struct.anon.27, ptr %4, i32 0, i32 0
  %6 = load i32, ptr %5, align 8, !tbaa !11
  %7 = icmp slt i32 %6, 0
  %8 = zext i1 %7 to i32
  ret i32 %8
}

; Function Attrs: alwaysinline nounwind uwtable
define internal void @Py_DECREF(ptr noundef %0) #4 {
  %2 = alloca ptr, align 8
  store ptr %0, ptr %2, align 8, !tbaa !32
  %3 = load ptr, ptr %2, align 8, !tbaa !32
  %4 = call i32 @_Py_IsImmortal(ptr noundef %3)
  %5 = icmp ne i32 %4, 0
  br i1 %5, label %6, label %7

6:                                                ; preds = %1
  br label %16

7:                                                ; preds = %1
  %8 = load ptr, ptr %2, align 8, !tbaa !32
  %9 = getelementptr inbounds nuw %struct._object, ptr %8, i32 0, i32 0
  %10 = getelementptr inbounds nuw %struct.anon.27, ptr %9, i32 0, i32 0
  %11 = load i32, ptr %10, align 8, !tbaa !11
  %12 = add i32 %11, -1
  store i32 %12, ptr %10, align 8, !tbaa !11
  %13 = icmp eq i32 %12, 0
  br i1 %13, label %14, label %16

14:                                               ; preds = %7
  %15 = load ptr, ptr %2, align 8, !tbaa !32
  call void @_Py_Dealloc(ptr noundef %15)
  br label %16

16:                                               ; preds = %6, %14, %7
  ret void
}

; Function Attrs: nounwind uwtable
define hidden i32 @_PyCompile_AddDeferredAnnotaion(ptr noundef %0, ptr noundef %1) #0 {
  %3 = alloca i32, align 4
  %4 = alloca ptr, align 8
  %5 = alloca ptr, align 8
  %6 = alloca ptr, align 8
  %7 = alloca i32, align 4
  store ptr %0, ptr %4, align 8, !tbaa !4
  store ptr %1, ptr %5, align 8, !tbaa !112
  %8 = load ptr, ptr %4, align 8, !tbaa !4
  %9 = getelementptr inbounds nuw %struct._PyCompiler, ptr %8, i32 0, i32 7
  %10 = load ptr, ptr %9, align 8, !tbaa !48
  %11 = getelementptr inbounds nuw %struct.compiler_unit, ptr %10, i32 0, i32 4
  %12 = load ptr, ptr %11, align 8, !tbaa !70
  %13 = icmp eq ptr %12, null
  br i1 %13, label %14, label %28

14:                                               ; preds = %2
  %15 = call ptr @PyList_New(i64 noundef 0)
  %16 = load ptr, ptr %4, align 8, !tbaa !4
  %17 = getelementptr inbounds nuw %struct._PyCompiler, ptr %16, i32 0, i32 7
  %18 = load ptr, ptr %17, align 8, !tbaa !48
  %19 = getelementptr inbounds nuw %struct.compiler_unit, ptr %18, i32 0, i32 4
  store ptr %15, ptr %19, align 8, !tbaa !70
  %20 = load ptr, ptr %4, align 8, !tbaa !4
  %21 = getelementptr inbounds nuw %struct._PyCompiler, ptr %20, i32 0, i32 7
  %22 = load ptr, ptr %21, align 8, !tbaa !48
  %23 = getelementptr inbounds nuw %struct.compiler_unit, ptr %22, i32 0, i32 4
  %24 = load ptr, ptr %23, align 8, !tbaa !70
  %25 = icmp eq ptr %24, null
  br i1 %25, label %26, label %27

26:                                               ; preds = %14
  store i32 -1, ptr %3, align 4
  br label %48

27:                                               ; preds = %14
  br label %28

28:                                               ; preds = %27, %2
  call void @llvm.lifetime.start.p0(i64 8, ptr %6) #8
  %29 = load ptr, ptr %5, align 8, !tbaa !112
  %30 = call ptr @PyLong_FromVoidPtr(ptr noundef %29)
  store ptr %30, ptr %6, align 8, !tbaa !32
  %31 = load ptr, ptr %6, align 8, !tbaa !32
  %32 = icmp eq ptr %31, null
  br i1 %32, label %33, label %34

33:                                               ; preds = %28
  store i32 -1, ptr %3, align 4
  store i32 1, ptr %7, align 4
  br label %47

34:                                               ; preds = %28
  %35 = load ptr, ptr %4, align 8, !tbaa !4
  %36 = getelementptr inbounds nuw %struct._PyCompiler, ptr %35, i32 0, i32 7
  %37 = load ptr, ptr %36, align 8, !tbaa !48
  %38 = getelementptr inbounds nuw %struct.compiler_unit, ptr %37, i32 0, i32 4
  %39 = load ptr, ptr %38, align 8, !tbaa !70
  %40 = load ptr, ptr %6, align 8, !tbaa !32
  %41 = call i32 @PyList_Append(ptr noundef %39, ptr noundef %40)
  %42 = icmp slt i32 %41, 0
  br i1 %42, label %43, label %45

43:                                               ; preds = %34
  %44 = load ptr, ptr %6, align 8, !tbaa !32
  call void @Py_DECREF(ptr noundef %44)
  store i32 -1, ptr %3, align 4
  store i32 1, ptr %7, align 4
  br label %47

45:                                               ; preds = %34
  %46 = load ptr, ptr %6, align 8, !tbaa !32
  call void @Py_DECREF(ptr noundef %46)
  store i32 0, ptr %3, align 4
  store i32 1, ptr %7, align 4
  br label %47

47:                                               ; preds = %45, %43, %33
  call void @llvm.lifetime.end.p0(i64 8, ptr %6) #8
  br label %48

48:                                               ; preds = %47, %26
  %49 = load i32, ptr %3, align 4
  ret i32 %49
}