; Function Attrs: nounwind uwtable
define hidden range(i32 -1, 1) i32 @_PyCompile_AddDeferredAnnotaion(ptr noundef readonly captures(none) %0, ptr noundef %1) local_unnamed_addr #0 {
  %3 = getelementptr inbounds nuw i8, ptr %0, i64 64
  %4 = load ptr, ptr %3, align 8, !tbaa !42
  %5 = getelementptr inbounds nuw i8, ptr %4, i64 32
  %6 = load ptr, ptr %5, align 8, !tbaa !63
  %7 = icmp eq ptr %6, null
  br i1 %7, label %8, label %13

8:                                                ; preds = %2
  %9 = tail call ptr @PyList_New(i64 noundef 0) #11
  %10 = load ptr, ptr %3, align 8, !tbaa !42
  %11 = getelementptr inbounds nuw i8, ptr %10, i64 32
  store ptr %9, ptr %11, align 8, !tbaa !63
  %12 = icmp eq ptr %9, null
  br i1 %12, label %26, label %13

13:                                               ; preds = %8, %2
  %14 = tail call ptr @PyLong_FromVoidPtr(ptr noundef %1) #11
  %15 = icmp eq ptr %14, null
  br i1 %15, label %26, label %16

16:                                               ; preds = %13
  %17 = load ptr, ptr %3, align 8, !tbaa !42
  %18 = getelementptr inbounds nuw i8, ptr %17, i64 32
  %19 = load ptr, ptr %18, align 8, !tbaa !63
  %20 = tail call i32 @PyList_Append(ptr noundef %19, ptr noundef nonnull %14) #11
  %21 = load i32, ptr %14, align 8, !tbaa !4
  %.not.i = icmp sgt i32 %21, -1
  br i1 %.not.i, label %22, label %Py_DECREF.exit

22:                                               ; preds = %16
  %23 = add nsw i32 %21, -1
  store i32 %23, ptr %14, align 8, !tbaa !4
  %24 = icmp eq i32 %23, 0
  br i1 %24, label %25, label %Py_DECREF.exit

25:                                               ; preds = %22
  tail call void @_Py_Dealloc(ptr noundef nonnull %14) #11
  br label %Py_DECREF.exit

Py_DECREF.exit:                                   ; preds = %16, %22, %25
  %.lobit = ashr i32 %20, 31
  br label %26

26:                                               ; preds = %13, %Py_DECREF.exit, %8
  %.0 = phi i32 [ -1, %8 ], [ -1, %13 ], [ %.lobit, %Py_DECREF.exit ]
  ret i32 %.0
}